; Function Attrs: mustprogress nofree norecurse nosync nounwind willreturn memory(argmem: readwrite) uwtable
define void @_ZNK11OpenImageIO6v3_1_08ArgParse3Arg4nameEv(ptr dead_on_unwind noalias writable writeonly sret(%"class.OpenImageIO::v3_1_0::basic_string_view") align 8 captures(none) initializes((0, 16)) %0, ptr noundef nonnull readonly align 8 captures(none) dereferenceable(8) %1) local_unnamed_addr #17 align 2 {
  %3 = getelementptr inbounds nuw i8, ptr %1, i64 104
  %4 = load ptr, ptr %3, align 8, !tbaa !20
  store ptr %4, ptr %0, align 8, !tbaa !15
  %5 = getelementptr inbounds nuw i8, ptr %0, i64 8
  %6 = getelementptr inbounds nuw i8, ptr %1, i64 112
  %7 = load i64, ptr %6, align 8, !tbaa !11
  store i64 %7, ptr %5, align 8, !tbaa !17
  ret void
}